; Function Attrs: nounwind uwtable
define dso_local range(i32 -1, 1) i32 @zend_try_assign_typed_ref_str(ptr noundef %0, ptr noundef %1) local_unnamed_addr #2 {
  %3 = alloca %struct._zval_struct, align 8
  call void @llvm.lifetime.start.p0(i64 16, ptr nonnull %3) #34
  store ptr %1, ptr %3, align 8, !tbaa !42
  %4 = getelementptr inbounds nuw i8, ptr %1, i64 4
  %5 = load i32, ptr %4, align 4, !tbaa !42
  %6 = and i32 %5, 64
  %.not = icmp eq i32 %6, 0
  %7 = select i1 %.not, i32 262, i32 6
  %8 = getelementptr inbounds nuw i8, ptr %3, i64 8
  store i32 %7, ptr %8, align 8, !tbaa !42
  %9 = call i32 @zend_try_assign_typed_ref(ptr noundef %0, ptr noundef nonnull %3)
  call void @llvm.lifetime.end.p0(i64 16, ptr nonnull %3) #34
  ret i32 %9
}